target datalayout = "e-m:e-p270:32:32-p271:32:32-p272:64:64-i64:64-i128:128-f80:128-n8:16:32:64-S128"
target triple = "x86_64-pc-linux-gnu"

%class.QObject = type { ptr, %class.QScopedPointer }
%class.QScopedPointer = type { ptr }
%class.QString = type { ptr }
%class.MainWindow = type { %class.QMainWindow, %class.MainWindowSetting, %class.QNetworkAccessManager, i32, i32, i8, ptr, ptr, ptr, ptr, ptr, ptr, %class.RichParameterList, ptr, %class.QByteArray, %class.QDir, ptr, ptr, ptr, ptr, ptr, ptr, ptr, ptr, ptr, ptr, ptr, ptr, ptr, ptr, ptr, ptr, ptr, ptr, ptr, ptr, ptr, ptr, ptr, ptr, ptr, ptr, ptr, ptr, ptr, ptr, ptr, ptr, ptr, ptr, ptr, ptr, ptr, ptr, ptr, ptr, ptr, ptr, ptr, ptr, ptr, ptr, ptr, ptr, ptr, ptr, ptr, ptr, ptr, ptr, ptr, ptr, ptr, ptr, [9 x ptr], [9 x ptr], ptr, ptr, ptr, ptr, ptr, ptr, ptr, ptr, ptr, ptr, ptr, ptr, ptr, ptr, ptr, ptr, ptr, ptr, ptr, ptr, ptr, ptr, ptr, ptr, ptr, ptr, ptr, ptr, ptr, ptr, ptr, ptr, ptr, ptr, ptr, ptr, ptr, ptr, ptr, ptr, ptr, ptr, ptr, ptr, ptr, ptr, ptr, ptr, ptr, ptr, ptr, ptr, ptr, ptr, ptr, ptr, ptr, ptr, ptr, ptr, ptr, ptr, ptr, ptr, ptr, ptr }
%class.QMainWindow = type { %class.QWidget }
%class.QWidget = type { %class.QObject, %class.QPaintDevice, ptr }
%class.QPaintDevice = type { ptr, i16, ptr }
%class.MainWindowSetting = type <{ i64, i8, [7 x i8], i64, i64, i64, i32, i32, %class.QString, i8, i8, [6 x i8] }>
%class.QNetworkAccessManager = type { %class.QObject }
%class.RichParameterList = type { %"class.std::__cxx11::list" }
%"class.std::__cxx11::list" = type { %"class.std::__cxx11::_List_base" }
%"class.std::__cxx11::_List_base" = type { %"struct.std::__cxx11::_List_base<RichParameter *, std::allocator<RichParameter *>>::_List_impl" }
%"struct.std::__cxx11::_List_base<RichParameter *, std::allocator<RichParameter *>>::_List_impl" = type { %"struct.std::__detail::_List_node_header" }
%"struct.std::__detail::_List_node_header" = type { %"struct.std::__detail::_List_node_base", i64 }
%"struct.std::__detail::_List_node_base" = type { ptr, ptr }
%class.QByteArray = type { ptr }
%class.QDir = type { %class.QSharedDataPointer }
%class.QSharedDataPointer = type { ptr }

; Function Attrs: mustprogress uwtable
define void @_ZN10MainWindow38enableDocumentSensibleActionsContainerEb(ptr noundef nonnull align 8 dereferenceable(1376) %0, i1 noundef zeroext %1) #5 align 2 {
  %3 = alloca ptr, align 8
  %4 = alloca i8, align 1
  %5 = alloca ptr, align 8
  %6 = alloca ptr, align 8
  %7 = alloca ptr, align 8
  store ptr %0, ptr %3, align 8
  %8 = zext i1 %1 to i8
  store i8 %8, ptr %4, align 1
  %9 = load ptr, ptr %3, align 8
  %10 = getelementptr inbounds %class.MainWindow, ptr %9, i32 0, i32 24
  %11 = load ptr, ptr %10, align 8
  %12 = call noundef ptr @_ZNK5QMenu10menuActionEv(ptr noundef nonnull align 8 dereferenceable(48) %11)
  store ptr %12, ptr %5, align 8
  %13 = load ptr, ptr %5, align 8
  %14 = icmp ne ptr %13, null
  br i1 %14, label %15, label %19

15:                                               ; preds = %2
  %16 = load ptr, ptr %5, align 8
  %17 = load i8, ptr %4, align 1
  %18 = trunc i8 %17 to i1
  call void @_ZN7QAction10setEnabledEb(ptr noundef nonnull align 8 dereferenceable(16) %16, i1 noundef zeroext %18)
  br label %19

19:                                               ; preds = %15, %2
  %20 = getelementptr inbounds %class.MainWindow, ptr %9, i32 0, i32 18
  %21 = load ptr, ptr %20, align 8
  %22 = icmp ne ptr %21, null
  br i1 %22, label %23, label %28

23:                                               ; preds = %19
  %24 = getelementptr inbounds %class.MainWindow, ptr %9, i32 0, i32 18
  %25 = load ptr, ptr %24, align 8
  %26 = load i8, ptr %4, align 1
  %27 = trunc i8 %26 to i1
  call void @_ZN7QWidget10setEnabledEb(ptr noundef nonnull align 8 dereferenceable(48) %25, i1 noundef zeroext %27)
  br label %28

28:                                               ; preds = %23, %19
  %29 = getelementptr inbounds %class.MainWindow, ptr %9, i32 0, i32 22
  %30 = load ptr, ptr %29, align 8
  %31 = icmp ne ptr %30, null
  br i1 %31, label %32, label %37

32:                                               ; preds = %28
  %33 = getelementptr inbounds %class.MainWindow, ptr %9, i32 0, i32 22
  %34 = load ptr, ptr %33, align 8
  %35 = load i8, ptr %4, align 1
  %36 = trunc i8 %35 to i1
  call void @_ZN7QWidget10setEnabledEb(ptr noundef nonnull align 8 dereferenceable(48) %34, i1 noundef zeroext %36)
  br label %37

37:                                               ; preds = %32, %28
  %38 = getelementptr inbounds %class.MainWindow, ptr %9, i32 0, i32 25
  %39 = load ptr, ptr %38, align 8
  %40 = call noundef ptr @_ZNK5QMenu10menuActionEv(ptr noundef nonnull align 8 dereferenceable(48) %39)
  store ptr %40, ptr %6, align 8
  %41 = load ptr, ptr %6, align 8
  %42 = icmp ne ptr %41, null
  br i1 %42, label %43, label %47

43:                                               ; preds = %37
  %44 = load ptr, ptr %6, align 8
  %45 = load i8, ptr %4, align 1
  %46 = trunc i8 %45 to i1
  call void @_ZN7QAction10setEnabledEb(ptr noundef nonnull align 8 dereferenceable(16) %44, i1 noundef zeroext %46)
  br label %47

47:                                               ; preds = %43, %37
  %48 = getelementptr inbounds %class.MainWindow, ptr %9, i32 0, i32 21
  %49 = load ptr, ptr %48, align 8
  %50 = icmp ne ptr %49, null
  br i1 %50, label %51, label %56

51:                                               ; preds = %47
  %52 = getelementptr inbounds %class.MainWindow, ptr %9, i32 0, i32 21
  %53 = load ptr, ptr %52, align 8
  %54 = load i8, ptr %4, align 1
  %55 = trunc i8 %54 to i1
  call void @_ZN7QWidget10setEnabledEb(ptr noundef nonnull align 8 dereferenceable(48) %53, i1 noundef zeroext %55)
  br label %56

56:                                               ; preds = %51, %47
  %57 = getelementptr inbounds %class.MainWindow, ptr %9, i32 0, i32 45
  %58 = load ptr, ptr %57, align 8
  %59 = call noundef ptr @_ZNK5QMenu10menuActionEv(ptr noundef nonnull align 8 dereferenceable(48) %58)
  store ptr %59, ptr %7, align 8
  %60 = load ptr, ptr %7, align 8
  %61 = icmp ne ptr %60, null
  br i1 %61, label %62, label %66

62:                                               ; preds = %56
  %63 = load ptr, ptr %7, align 8
  %64 = load i8, ptr %4, align 1
  %65 = trunc i8 %64 to i1
  call void @_ZN7QAction10setEnabledEb(ptr noundef nonnull align 8 dereferenceable(16) %63, i1 noundef zeroext %65)
  br label %66

66:                                               ; preds = %62, %56
  %67 = getelementptr inbounds %class.MainWindow, ptr %9, i32 0, i32 20
  %68 = load ptr, ptr %67, align 8
  %69 = icmp ne ptr %68, null
  br i1 %69, label %70, label %75

70:                                               ; preds = %66
  %71 = getelementptr inbounds %class.MainWindow, ptr %9, i32 0, i32 20
  %72 = load ptr, ptr %71, align 8
  %73 = load i8, ptr %4, align 1
  %74 = trunc i8 %73 to i1
  call void @_ZN7QWidget10setEnabledEb(ptr noundef nonnull align 8 dereferenceable(48) %72, i1 noundef zeroext %74)
  br label %75

75:                                               ; preds = %70, %66
  ret void
}