; Function Attrs: mustprogress uwtable
define void @_ZN10MainWindow38enableDocumentSensibleActionsContainerEb(ptr nocapture noundef nonnull readonly align 8 dereferenceable(1376) %0, i1 noundef zeroext %1) local_unnamed_addr #9 align 2 {
  %3 = getelementptr inbounds i8, ptr %0, i64 304
  %4 = load ptr, ptr %3, align 8
  %5 = tail call noundef ptr @_ZNK5QMenu10menuActionEv(ptr noundef nonnull align 8 dereferenceable(48) %4)
  %.not = icmp eq ptr %5, null
  br i1 %.not, label %7, label %6

6:                                                ; preds = %2
  tail call void @_ZN7QAction10setEnabledEb(ptr noundef nonnull align 8 dereferenceable(16) %5, i1 noundef zeroext %1)
  br label %7

7:                                                ; preds = %6, %2
  %8 = getelementptr inbounds i8, ptr %0, i64 256
  %9 = load ptr, ptr %8, align 8
  %.not19 = icmp eq ptr %9, null
  br i1 %.not19, label %11, label %10

10:                                               ; preds = %7
  tail call void @_ZN7QWidget10setEnabledEb(ptr noundef nonnull align 8 dereferenceable(48) %9, i1 noundef zeroext %1)
  br label %11

11:                                               ; preds = %10, %7
  %12 = getelementptr inbounds i8, ptr %0, i64 288
  %13 = load ptr, ptr %12, align 8
  %.not20 = icmp eq ptr %13, null
  br i1 %.not20, label %15, label %14

14:                                               ; preds = %11
  tail call void @_ZN7QWidget10setEnabledEb(ptr noundef nonnull align 8 dereferenceable(48) %13, i1 noundef zeroext %1)
  br label %15

15:                                               ; preds = %14, %11
  %16 = getelementptr inbounds i8, ptr %0, i64 312
  %17 = load ptr, ptr %16, align 8
  %18 = tail call noundef ptr @_ZNK5QMenu10menuActionEv(ptr noundef nonnull align 8 dereferenceable(48) %17)
  %.not21 = icmp eq ptr %18, null
  br i1 %.not21, label %20, label %19

19:                                               ; preds = %15
  tail call void @_ZN7QAction10setEnabledEb(ptr noundef nonnull align 8 dereferenceable(16) %18, i1 noundef zeroext %1)
  br label %20

20:                                               ; preds = %19, %15
  %21 = getelementptr inbounds i8, ptr %0, i64 280
  %22 = load ptr, ptr %21, align 8
  %.not22 = icmp eq ptr %22, null
  br i1 %.not22, label %24, label %23

23:                                               ; preds = %20
  tail call void @_ZN7QWidget10setEnabledEb(ptr noundef nonnull align 8 dereferenceable(48) %22, i1 noundef zeroext %1)
  br label %24

24:                                               ; preds = %23, %20
  %25 = getelementptr inbounds i8, ptr %0, i64 472
  %26 = load ptr, ptr %25, align 8
  %27 = tail call noundef ptr @_ZNK5QMenu10menuActionEv(ptr noundef nonnull align 8 dereferenceable(48) %26)
  %.not23 = icmp eq ptr %27, null
  br i1 %.not23, label %29, label %28

28:                                               ; preds = %24
  tail call void @_ZN7QAction10setEnabledEb(ptr noundef nonnull align 8 dereferenceable(16) %27, i1 noundef zeroext %1)
  br label %29

29:                                               ; preds = %28, %24
  %30 = getelementptr inbounds i8, ptr %0, i64 272
  %31 = load ptr, ptr %30, align 8
  %.not24 = icmp eq ptr %31, null
  br i1 %.not24, label %33, label %32

32:                                               ; preds = %29
  tail call void @_ZN7QWidget10setEnabledEb(ptr noundef nonnull align 8 dereferenceable(48) %31, i1 noundef zeroext %1)
  br label %33

33:                                               ; preds = %32, %29
  ret void
}